; ModuleID = '60/241.c'
source_filename = "60/241.c"
target datalayout = "e-m:e-p270:32:32-p271:32:32-p272:64:64-i64:64-f80:128-n8:16:32:64-S128"
target triple = "x86_64-pc-linux-gnu"

@.str = private unnamed_addr constant [3 x i8] c"%d\00", align 1
@.str.1 = private unnamed_addr constant [6 x i8] c"empty\00", align 1
@.str.2 = private unnamed_addr constant [7 x i8] c"%d %d\0A\00", align 1

; Function Attrs: noinline nounwind uwtable
define dso_local i32 @sushu(i32 %0) #0 {
  %2 = alloca i32, align 4
  %3 = alloca i32, align 4
  %4 = alloca i32, align 4
  store i32 %0, i32* %2, align 4
  %5 = load i32, i32* %2, align 4
  %6 = icmp eq i32 %5, 1
  br i1 %6, label %7, label %8

7:                                                ; preds = %1
  store i32 0, i32* %4, align 4
  br label %30

8:                                                ; preds = %1
  %9 = load i32, i32* %2, align 4
  %10 = icmp eq i32 %9, 2
  br i1 %10, label %11, label %12

11:                                               ; preds = %8
  store i32 1, i32* %4, align 4
  br label %29

12:                                               ; preds = %8
  store i32 2, i32* %3, align 4
  br label %13

13:                                               ; preds = %25, %12
  %14 = load i32, i32* %3, align 4
  %15 = load i32, i32* %2, align 4
  %16 = icmp slt i32 %14, %15
  br i1 %16, label %17, label %28

17:                                               ; preds = %13
  %18 = load i32, i32* %2, align 4
  %19 = load i32, i32* %3, align 4
  %20 = srem i32 %18, %19
  %21 = icmp ne i32 %20, 0
  br i1 %21, label %22, label %23

22:                                               ; preds = %17
  store i32 1, i32* %4, align 4
  br label %24

23:                                               ; preds = %17
  store i32 0, i32* %4, align 4
  br label %28

24:                                               ; preds = %22
  br label %25

25:                                               ; preds = %24
  %26 = load i32, i32* %3, align 4
  %27 = add nsw i32 %26, 1
  store i32 %27, i32* %3, align 4
  br label %13

28:                                               ; preds = %23, %13
  br label %29

29:                                               ; preds = %28, %11
  br label %30

30:                                               ; preds = %29, %7
  %31 = load i32, i32* %4, align 4
  ret i32 %31
}

; Function Attrs: noinline nounwind uwtable
define dso_local i32 @main() #0 {
  %1 = alloca i32, align 4
  %2 = alloca i32, align 4
  %3 = alloca [100000 x i32], align 16
  %4 = alloca i32, align 4
  %5 = alloca i32, align 4
  %6 = alloca i32, align 4
  %7 = alloca i32, align 4
  store i32 0, i32* %1, align 4
  %8 = call i32 (i8*, ...) @__isoc99_scanf(i8* getelementptr inbounds ([3 x i8], [3 x i8]* @.str, i64 0, i64 0), i32* %2)
  %9 = load i32, i32* %2, align 4
  %10 = icmp sle i32 %9, 4
  br i1 %10, label %11, label %13

11:                                               ; preds = %0
  %12 = call i32 (i8*, ...) @printf(i8* getelementptr inbounds ([6 x i8], [6 x i8]* @.str.1, i64 0, i64 0))
  br label %68

13:                                               ; preds = %0
  store i32 1, i32* %4, align 4
  store i32 0, i32* %5, align 4
  br label %14

14:                                               ; preds = %32, %13
  %15 = load i32, i32* %4, align 4
  %16 = load i32, i32* %2, align 4
  %17 = icmp sle i32 %15, %16
  br i1 %17, label %18, label %35

18:                                               ; preds = %14
  %19 = load i32, i32* %4, align 4
  %20 = call i32 @sushu(i32 %19)
  store i32 %20, i32* %7, align 4
  %21 = load i32, i32* %7, align 4
  %22 = icmp eq i32 %21, 1
  br i1 %22, label %23, label %31

23:                                               ; preds = %18
  %24 = load i32, i32* %4, align 4
  %25 = load i32, i32* %5, align 4
  %26 = sext i32 %25 to i64
  %27 = getelementptr inbounds [100000 x i32], [100000 x i32]* %3, i64 0, i64 %26
  store i32 %24, i32* %27, align 4
  %28 = load i32, i32* %5, align 4
  store i32 %28, i32* %6, align 4
  %29 = load i32, i32* %5, align 4
  %30 = add nsw i32 %29, 1
  store i32 %30, i32* %5, align 4
  br label %31

31:                                               ; preds = %23, %18
  br label %32

32:                                               ; preds = %31
  %33 = load i32, i32* %4, align 4
  %34 = add nsw i32 %33, 1
  store i32 %34, i32* %4, align 4
  br label %14

35:                                               ; preds = %14
  store i32 1, i32* %5, align 4
  br label %36

36:                                               ; preds = %64, %35
  %37 = load i32, i32* %5, align 4
  %38 = load i32, i32* %6, align 4
  %39 = icmp sle i32 %37, %38
  br i1 %39, label %40, label %67

40:                                               ; preds = %36
  %41 = load i32, i32* %5, align 4
  %42 = sext i32 %41 to i64
  %43 = getelementptr inbounds [100000 x i32], [100000 x i32]* %3, i64 0, i64 %42
  %44 = load i32, i32* %43, align 4
  %45 = load i32, i32* %5, align 4
  %46 = sub nsw i32 %45, 1
  %47 = sext i32 %46 to i64
  %48 = getelementptr inbounds [100000 x i32], [100000 x i32]* %3, i64 0, i64 %47
  %49 = load i32, i32* %48, align 4
  %50 = sub nsw i32 %44, %49
  %51 = icmp eq i32 %50, 2
  br i1 %51, label %52, label %63

52:                                               ; preds = %40
  %53 = load i32, i32* %5, align 4
  %54 = sub nsw i32 %53, 1
  %55 = sext i32 %54 to i64
  %56 = getelementptr inbounds [100000 x i32], [100000 x i32]* %3, i64 0, i64 %55
  %57 = load i32, i32* %56, align 4
  %58 = load i32, i32* %5, align 4
  %59 = sext i32 %58 to i64
  %60 = getelementptr inbounds [100000 x i32], [100000 x i32]* %3, i64 0, i64 %59
  %61 = load i32, i32* %60, align 4
  %62 = call i32 (i8*, ...) @printf(i8* getelementptr inbounds ([7 x i8], [7 x i8]* @.str.2, i64 0, i64 0), i32 %57, i32 %61)
  br label %63

63:                                               ; preds = %52, %40
  br label %64

64:                                               ; preds = %63
  %65 = load i32, i32* %5, align 4
  %66 = add nsw i32 %65, 1
  store i32 %66, i32* %5, align 4
  br label %36

67:                                               ; preds = %36
  br label %68

68:                                               ; preds = %67, %11
  %69 = load i32, i32* %1, align 4
  ret i32 %69
}

declare dso_local i32 @__isoc99_scanf(i8*, ...) #1

declare dso_local i32 @printf(i8*, ...) #1


!llvm.module.flags = !{!0}
!llvm.ident = !{!1}

!0 = !{i32 1, !"wchar_size", i32 4}
!1 = !{!"clang version 10.0.0-4ubuntu1 "}
